; Function Attrs: nounwind uwtable
define dso_local void @slurm_print_job_step_info(ptr noundef captures(none) %0, ptr noundef %1, i32 noundef %2) local_unnamed_addr #0 {
  %4 = alloca ptr, align 8
  call void @llvm.lifetime.start.p0(i64 8, ptr nonnull %4) #11
  %5 = tail call ptr @slurm_sprint_job_step_info(ptr noundef %1, i32 noundef %2)
  store ptr %5, ptr %4, align 8
  %fputs = tail call i32 @fputs(ptr %5, ptr %0)
  call void @slurm_xfree(ptr noundef nonnull %4) #11
  call void @llvm.lifetime.end.p0(i64 8, ptr nonnull %4) #11
  ret void
}